target datalayout = "e-m:e-p270:32:32-p271:32:32-p272:64:64-i64:64-i128:128-f80:128-n8:16:32:64-S128"
target triple = "x86_64-pc-linux-gnu"

; Function Attrs: nounwind uwtable
define i32 @risnull(i32 noundef %0, ptr noundef %1) #0 {
  %3 = alloca i32, align 4
  %4 = alloca ptr, align 8
  store i32 %0, ptr %3, align 4
  store ptr %1, ptr %4, align 8
  %5 = load i32, ptr %3, align 4
  %6 = load ptr, ptr %4, align 8
  %7 = call zeroext i1 @ECPGis_noind_null(i32 noundef %5, ptr noundef %6)
  %8 = zext i1 %7 to i32
  ret i32 %8
}

; Function Attrs: nounwind uwtable
define i32 @rsetnull(i32 noundef %0, ptr noundef %1) #0 {
  %3 = alloca i32, align 4
  %4 = alloca ptr, align 8
  store i32 %0, ptr %3, align 4
  store ptr %1, ptr %4, align 8
  %5 = load i32, ptr %3, align 4
  %6 = load ptr, ptr %4, align 8
  call void @ECPGset_noind_null(i32 noundef %5, ptr noundef %6)
  ret i32 0
}

; Function Attrs: nounwind uwtable
define i32 @deccvlong(i64 noundef %0, ptr noundef %1) #0 {
  %3 = alloca i32, align 4
  %4 = alloca i64, align 8
  %5 = alloca ptr, align 8
  %6 = alloca ptr, align 8
  %7 = alloca i32, align 4
  %8 = alloca i32, align 4
  store i64 %0, ptr %4, align 8
  store ptr %1, ptr %5, align 8
  call void @llvm.lifetime.start.p0(i64 8, ptr %6) #9
  call void @llvm.lifetime.start.p0(i64 4, ptr %7) #9
  store i32 1, ptr %7, align 4
  %9 = load ptr, ptr %5, align 8
  %10 = call i32 @rsetnull(i32 noundef 17, ptr noundef %9)
  %11 = call i32 @risnull(i32 noundef 7, ptr noundef %4)
  %12 = icmp ne i32 %11, 0
  br i1 %12, label %13, label %14

13:                                               ; preds = %2
  store i32 0, ptr %3, align 4
  store i32 1, ptr %8, align 4
  br label %32

14:                                               ; preds = %2
  %15 = call ptr @PGTYPESnumeric_new()
  store ptr %15, ptr %6, align 8
  %16 = load ptr, ptr %6, align 8
  %17 = icmp eq ptr %16, null
  br i1 %17, label %18, label %19

18:                                               ; preds = %14
  store i32 -1211, ptr %3, align 4
  store i32 1, ptr %8, align 4
  br label %32

19:                                               ; preds = %14
  %20 = load i64, ptr %4, align 8
  %21 = load ptr, ptr %6, align 8
  %22 = call i32 @PGTYPESnumeric_from_long(i64 noundef %20, ptr noundef %21)
  store i32 %22, ptr %7, align 4
  %23 = load i32, ptr %7, align 4
  %24 = icmp eq i32 %23, 0
  br i1 %24, label %25, label %29

25:                                               ; preds = %19
  %26 = load ptr, ptr %6, align 8
  %27 = load ptr, ptr %5, align 8
  %28 = call i32 @PGTYPESnumeric_to_decimal(ptr noundef %26, ptr noundef %27)
  store i32 %28, ptr %7, align 4
  br label %29

29:                                               ; preds = %25, %19
  %30 = load ptr, ptr %6, align 8
  call void @PGTYPESnumeric_free(ptr noundef %30)
  %31 = load i32, ptr %7, align 4
  store i32 %31, ptr %3, align 4
  store i32 1, ptr %8, align 4
  br label %32

32:                                               ; preds = %29, %18, %13
  call void @llvm.lifetime.end.p0(i64 4, ptr %7) #9
  call void @llvm.lifetime.end.p0(i64 8, ptr %6) #9
  %33 = load i32, ptr %3, align 4
  ret i32 %33
}